; Function Attrs: mustprogress uwtable
define void @_ZN8nanobind6detail16getitem_or_raiseEP7_objectS2_PS2_(ptr noundef %0, ptr noundef %1, ptr noundef captures(none) %2) local_unnamed_addr #15 {
  %4 = load ptr, ptr %2, align 8
  %.not = icmp eq ptr %4, null
  br i1 %.not, label %5, label %9

5:                                                ; preds = %3
  %6 = tail call ptr @PyObject_GetItem(ptr noundef %0, ptr noundef %1)
  %.not6 = icmp eq ptr %6, null
  br i1 %.not6, label %7, label %8

7:                                                ; preds = %5
  tail call void @_ZN8nanobind6detail18raise_python_errorEv() #28
  unreachable

8:                                                ; preds = %5
  store ptr %6, ptr %2, align 8
  br label %9

9:                                                ; preds = %3, %8
  ret void
}